target datalayout = "e-m:e-p270:32:32-p271:32:32-p272:64:64-i64:64-i128:128-f80:128-n8:16:32:64-S128"
target triple = "x86_64-pc-linux-gnu"

%class.OopIterateClosure = type { %class.OopClosure, ptr }
%class.OopClosure = type { ptr }
%class.G1ParScanThreadState = type { ptr, ptr, ptr, %class.G1RedirtyCardsLocalQueueSet, ptr, ptr, ptr, %class.AgeTable, i32, [4 x i8], %class.G1ScanEvacuatedObjClosure, i32, i64, i32, i32, %class.TimeInterval, ptr, ptr, i64, i8, i32, %class.PartialArrayTaskStepper, %"class.StringDedup::Requests", i64, ptr, ptr, ptr, ptr, %class.EvacuationFailedInfo, ptr, i64 }
%class.G1RedirtyCardsLocalQueueSet = type { %class.PtrQueueSet, ptr, %struct.BufferNodeList, %"class.G1RedirtyCardsLocalQueueSet::Queue" }
%class.PtrQueueSet = type { ptr, ptr }
%struct.BufferNodeList = type { ptr, ptr, i64 }
%"class.G1RedirtyCardsLocalQueueSet::Queue" = type { %class.PtrQueue }
%class.PtrQueue = type { i64, ptr }
%class.AgeTable = type { [16 x i64], i8, [16 x ptr] }
%class.G1ScanEvacuatedObjClosure = type <{ %class.G1ScanClosureBase, i32, [4 x i8] }>
%class.G1ScanClosureBase = type { %class.BasicOopIterateClosure, ptr, ptr }
%class.BasicOopIterateClosure = type { %class.OopIterateClosure }
%class.TimeInterval = type { %class.CompositeCounterRepresentation }
%class.CompositeCounterRepresentation = type { %class.Representation }
%class.Representation = type { %class.PairRep }
%class.PairRep = type { i64, i64 }
%class.PartialArrayTaskStepper = type { i32, i32 }
%"class.StringDedup::Requests" = type <{ ptr, ptr, i64, i8, [7 x i8] }>
%class.EvacuationFailedInfo = type { %class.CopyFailedInfo.base, [4 x i8] }
%class.CopyFailedInfo.base = type <{ ptr, i64, i64, i64, i32 }>
%class.G1PLABAllocator = type { ptr, ptr, [2 x %"struct.G1PLABAllocator::PLABData"], i64 }
%"struct.G1PLABAllocator::PLABData" = type <{ ptr, i64, i64, i64, i64, i64, i32, [4 x i8] }>
%struct.G1HeapRegionAttr = type { i8, i8, i8 }
%class.PLAB = type { [32 x i8], i64, ptr, ptr, ptr, ptr, i64, i64, i64, [32 x i8] }

; Function Attrs: mustprogress nounwind uwtable
define linkonce_odr hidden noundef i64 @_Z13pointer_deltaPVKvS0_m(ptr noundef %0, ptr noundef %1, i64 noundef %2) #1 comdat {
  %4 = alloca ptr, align 8
  %5 = alloca ptr, align 8
  %6 = alloca i64, align 8
  store ptr %0, ptr %4, align 8
  store ptr %1, ptr %5, align 8
  store i64 %2, ptr %6, align 8
  %7 = load ptr, ptr %4, align 8
  %8 = ptrtoint ptr %7 to i64
  %9 = load ptr, ptr %5, align 8
  %10 = ptrtoint ptr %9 to i64
  %11 = sub i64 %8, %10
  %12 = load i64, ptr %6, align 8
  %13 = udiv i64 %11, %12
  ret i64 %13
}

; Function Attrs: mustprogress nounwind uwtable
define linkonce_odr hidden noundef i64 @_Z13pointer_deltaPKP12HeapWordImplS2_(ptr noundef %0, ptr noundef %1) #1 comdat {
  %3 = alloca ptr, align 8
  %4 = alloca ptr, align 8
  store ptr %0, ptr %3, align 8
  store ptr %1, ptr %4, align 8
  %5 = load ptr, ptr %3, align 8
  %6 = load ptr, ptr %4, align 8
  %7 = call noundef i64 @_Z13pointer_deltaPVKvS0_m(ptr noundef %5, ptr noundef %6, i64 noundef 8)
  ret i64 %7
}

; Function Attrs: mustprogress nounwind uwtable
define linkonce_odr hidden noundef ptr @_ZNK15G1PLABAllocator12alloc_bufferEaj(ptr noundef nonnull align 8 dereferenceable(136) %0, i8 noundef signext %1, i32 noundef %2) #1 comdat align 2 {
  %4 = alloca ptr, align 8
  %5 = alloca ptr, align 8
  %6 = alloca i8, align 1
  %7 = alloca i32, align 4
  store ptr %0, ptr %5, align 8
  store i8 %1, ptr %6, align 1
  store i32 %2, ptr %7, align 4
  %8 = load ptr, ptr %5, align 8
  %9 = load i8, ptr %6, align 1
  %10 = sext i8 %9 to i32
  %11 = icmp eq i32 %10, 0
  br i1 %11, label %12, label %23

12:                                               ; preds = %3
  %13 = getelementptr inbounds %class.G1PLABAllocator, ptr %8, i32 0, i32 2
  %14 = load i8, ptr %6, align 1
  %15 = sext i8 %14 to i64
  %16 = getelementptr inbounds [2 x %"struct.G1PLABAllocator::PLABData"], ptr %13, i64 0, i64 %15
  %17 = getelementptr inbounds %"struct.G1PLABAllocator::PLABData", ptr %16, i32 0, i32 0
  %18 = load ptr, ptr %17, align 8
  %19 = load i32, ptr %7, align 4
  %20 = zext i32 %19 to i64
  %21 = getelementptr inbounds ptr, ptr %18, i64 %20
  %22 = load ptr, ptr %21, align 8
  store ptr %22, ptr %4, align 8
  br label %32

23:                                               ; preds = %3
  %24 = getelementptr inbounds %class.G1PLABAllocator, ptr %8, i32 0, i32 2
  %25 = load i8, ptr %6, align 1
  %26 = sext i8 %25 to i64
  %27 = getelementptr inbounds [2 x %"struct.G1PLABAllocator::PLABData"], ptr %24, i64 0, i64 %26
  %28 = getelementptr inbounds %"struct.G1PLABAllocator::PLABData", ptr %27, i32 0, i32 0
  %29 = load ptr, ptr %28, align 8
  %30 = getelementptr inbounds ptr, ptr %29, i64 0
  %31 = load ptr, ptr %30, align 8
  store ptr %31, ptr %4, align 8
  br label %32

32:                                               ; preds = %23, %12
  %33 = load ptr, ptr %4, align 8
  ret ptr %33
}

; Function Attrs: mustprogress nounwind uwtable
define linkonce_odr hidden noundef ptr @_ZN4PLAB8allocateEm(ptr noundef nonnull align 8 dereferenceable(128) %0, i64 noundef %1) #1 comdat align 2 {
  %3 = alloca ptr, align 8
  %4 = alloca ptr, align 8
  %5 = alloca i64, align 8
  %6 = alloca ptr, align 8
  store ptr %0, ptr %4, align 8
  store i64 %1, ptr %5, align 8
  %7 = load ptr, ptr %4, align 8
  %8 = getelementptr inbounds %class.PLAB, ptr %7, i32 0, i32 3
  %9 = load ptr, ptr %8, align 8
  store ptr %9, ptr %6, align 8
  %10 = getelementptr inbounds %class.PLAB, ptr %7, i32 0, i32 4
  %11 = load ptr, ptr %10, align 8
  %12 = getelementptr inbounds %class.PLAB, ptr %7, i32 0, i32 3
  %13 = load ptr, ptr %12, align 8
  %14 = call noundef i64 @_Z13pointer_deltaPKP12HeapWordImplS2_(ptr noundef %11, ptr noundef %13)
  %15 = load i64, ptr %5, align 8
  %16 = icmp uge i64 %14, %15
  br i1 %16, label %17, label %24

17:                                               ; preds = %2
  %18 = getelementptr inbounds %class.PLAB, ptr %7, i32 0, i32 3
  %19 = load ptr, ptr %18, align 8
  %20 = load i64, ptr %5, align 8
  %21 = getelementptr inbounds ptr, ptr %19, i64 %20
  %22 = getelementptr inbounds %class.PLAB, ptr %7, i32 0, i32 3
  store ptr %21, ptr %22, align 8
  %23 = load ptr, ptr %6, align 8
  store ptr %23, ptr %3, align 8
  br label %25

24:                                               ; preds = %2
  store ptr null, ptr %3, align 8
  br label %25

25:                                               ; preds = %24, %17
  %26 = load ptr, ptr %3, align 8
  ret ptr %26
}

; Function Attrs: mustprogress nounwind uwtable
define linkonce_odr hidden noundef ptr @_ZNK15G1PLABAllocator12alloc_bufferE16G1HeapRegionAttrj(ptr noundef nonnull align 8 dereferenceable(136) %0, i24 %1, i32 noundef %2) #1 comdat align 2 {
  %4 = alloca %struct.G1HeapRegionAttr, align 1
  %5 = alloca i24, align 4
  %6 = alloca ptr, align 8
  %7 = alloca i32, align 4
  store i24 %1, ptr %5, align 4
  call void @llvm.memcpy.p0.p0.i64(ptr align 1 %4, ptr align 4 %5, i64 3, i1 false)
  store ptr %0, ptr %6, align 8
  store i32 %2, ptr %7, align 4
  %8 = load ptr, ptr %6, align 8
  %9 = call noundef signext i8 @_ZNK16G1HeapRegionAttr4typeEv(ptr noundef nonnull align 1 dereferenceable(3) %4)
  %10 = load i32, ptr %7, align 4
  %11 = call noundef ptr @_ZNK15G1PLABAllocator12alloc_bufferEaj(ptr noundef nonnull align 8 dereferenceable(136) %8, i8 noundef signext %9, i32 noundef %10)
  ret ptr %11
}

; Function Attrs: mustprogress nounwind uwtable
define linkonce_odr hidden noundef ptr @_ZN15G1PLABAllocator13plab_allocateE16G1HeapRegionAttrmj(ptr noundef nonnull align 8 dereferenceable(136) %0, i24 %1, i64 noundef %2, i32 noundef %3) #1 comdat align 2 {
  %5 = alloca %struct.G1HeapRegionAttr, align 1
  %6 = alloca i24, align 4
  %7 = alloca ptr, align 8
  %8 = alloca i64, align 8
  %9 = alloca i32, align 4
  %10 = alloca ptr, align 8
  %11 = alloca %struct.G1HeapRegionAttr, align 1
  %12 = alloca i24, align 4
  store i24 %1, ptr %6, align 4
  call void @llvm.memcpy.p0.p0.i64(ptr align 1 %5, ptr align 4 %6, i64 3, i1 false)
  store ptr %0, ptr %7, align 8
  store i64 %2, ptr %8, align 8
  store i32 %3, ptr %9, align 4
  %13 = load ptr, ptr %7, align 8
  call void @llvm.memcpy.p0.p0.i64(ptr align 1 %11, ptr align 1 %5, i64 3, i1 false)
  %14 = load i32, ptr %9, align 4
  call void @llvm.memcpy.p0.p0.i64(ptr align 4 %12, ptr align 1 %11, i64 3, i1 false)
  %15 = load i24, ptr %12, align 4
  %16 = call noundef ptr @_ZNK15G1PLABAllocator12alloc_bufferE16G1HeapRegionAttrj(ptr noundef nonnull align 8 dereferenceable(136) %13, i24 %15, i32 noundef %14)
  store ptr %16, ptr %10, align 8
  %17 = load ptr, ptr %10, align 8
  %18 = load i64, ptr %8, align 8
  %19 = call noundef ptr @_ZN4PLAB8allocateEm(ptr noundef nonnull align 8 dereferenceable(128) %17, i64 noundef %18)
  ret ptr %19
}

; Function Attrs: mustprogress nounwind uwtable
define linkonce_odr hidden noundef signext i8 @_ZNK16G1HeapRegionAttr4typeEv(ptr noundef nonnull align 1 dereferenceable(3) %0) #1 comdat align 2 {
  %2 = alloca ptr, align 8
  store ptr %0, ptr %2, align 8
  %3 = load ptr, ptr %2, align 8
  %4 = getelementptr inbounds %struct.G1HeapRegionAttr, ptr %3, i32 0, i32 1
  %5 = load i8, ptr %4, align 1
  ret i8 %5
}

; Function Attrs: mustprogress nounwind uwtable
define linkonce_odr hidden void @_ZN16G1HeapRegionAttr7set_oldEv(ptr noundef nonnull align 1 dereferenceable(3) %0) #1 comdat align 2 {
  %2 = alloca ptr, align 8
  store ptr %0, ptr %2, align 8
  %3 = load ptr, ptr %2, align 8
  %4 = getelementptr inbounds %struct.G1HeapRegionAttr, ptr %3, i32 0, i32 1
  store i8 1, ptr %4, align 1
  ret void
}

; Function Attrs: mustprogress nounwind uwtable
define linkonce_odr hidden noundef ptr @_ZN15G1PLABAllocator8allocateE16G1HeapRegionAttrmPbj(ptr noundef nonnull align 8 dereferenceable(136) %0, i24 %1, i64 noundef %2, ptr noundef %3, i32 noundef %4) #1 comdat align 2 {
  %6 = alloca ptr, align 8
  %7 = alloca %struct.G1HeapRegionAttr, align 1
  %8 = alloca i24, align 4
  %9 = alloca ptr, align 8
  %10 = alloca i64, align 8
  %11 = alloca ptr, align 8
  %12 = alloca i32, align 4
  %13 = alloca ptr, align 8
  %14 = alloca %struct.G1HeapRegionAttr, align 1
  %15 = alloca i24, align 4
  %16 = alloca %struct.G1HeapRegionAttr, align 1
  %17 = alloca i24, align 4
  store i24 %1, ptr %8, align 4
  call void @llvm.memcpy.p0.p0.i64(ptr align 1 %7, ptr align 4 %8, i64 3, i1 false)
  store ptr %0, ptr %9, align 8
  store i64 %2, ptr %10, align 8
  store ptr %3, ptr %11, align 8
  store i32 %4, ptr %12, align 4
  %18 = load ptr, ptr %9, align 8
  call void @llvm.memcpy.p0.p0.i64(ptr align 1 %14, ptr align 1 %7, i64 3, i1 false)
  %19 = load i64, ptr %10, align 8
  %20 = load i32, ptr %12, align 4
  call void @llvm.memcpy.p0.p0.i64(ptr align 4 %15, ptr align 1 %14, i64 3, i1 false)
  %21 = load i24, ptr %15, align 4
  %22 = call noundef ptr @_ZN15G1PLABAllocator13plab_allocateE16G1HeapRegionAttrmj(ptr noundef nonnull align 8 dereferenceable(136) %18, i24 %21, i64 noundef %19, i32 noundef %20)
  store ptr %22, ptr %13, align 8
  %23 = load ptr, ptr %13, align 8
  %24 = icmp ne ptr %23, null
  br i1 %24, label %25, label %27

25:                                               ; preds = %5
  %26 = load ptr, ptr %13, align 8
  store ptr %26, ptr %6, align 8
  br label %33

27:                                               ; preds = %5
  call void @llvm.memcpy.p0.p0.i64(ptr align 1 %16, ptr align 1 %7, i64 3, i1 false)
  %28 = load i64, ptr %10, align 8
  %29 = load ptr, ptr %11, align 8
  %30 = load i32, ptr %12, align 4
  call void @llvm.memcpy.p0.p0.i64(ptr align 4 %17, ptr align 1 %16, i64 3, i1 false)
  %31 = load i24, ptr %17, align 4
  %32 = call noundef ptr @_ZN15G1PLABAllocator27allocate_direct_or_new_plabE16G1HeapRegionAttrmPbj(ptr noundef nonnull align 8 dereferenceable(136) %18, i24 %31, i64 noundef %28, ptr noundef %29, i32 noundef %30)
  store ptr %32, ptr %6, align 8
  br label %33

33:                                               ; preds = %27, %25
  %34 = load ptr, ptr %6, align 8
  ret ptr %34
}

; Function Attrs: mustprogress nounwind uwtable
define linkonce_odr hidden void @_ZN16G1HeapRegionAttrC2Eabb(ptr noundef nonnull align 1 dereferenceable(3) %0, i8 noundef signext %1, i1 noundef zeroext %2, i1 noundef zeroext %3) unnamed_addr #1 comdat align 2 {
  %5 = alloca ptr, align 8
  %6 = alloca i8, align 1
  %7 = alloca i8, align 1
  %8 = alloca i8, align 1
  store ptr %0, ptr %5, align 8
  store i8 %1, ptr %6, align 1
  %9 = zext i1 %2 to i8
  store i8 %9, ptr %7, align 1
  %10 = zext i1 %3 to i8
  store i8 %10, ptr %8, align 1
  %11 = load ptr, ptr %5, align 8
  %12 = getelementptr inbounds %struct.G1HeapRegionAttr, ptr %11, i32 0, i32 0
  %13 = load i8, ptr %7, align 1
  %14 = trunc i8 %13 to i1
  %15 = select i1 %14, i32 1, i32 0
  %16 = trunc i32 %15 to i8
  store i8 %16, ptr %12, align 1
  %17 = getelementptr inbounds %struct.G1HeapRegionAttr, ptr %11, i32 0, i32 1
  %18 = load i8, ptr %6, align 1
  store i8 %18, ptr %17, align 1
  %19 = getelementptr inbounds %struct.G1HeapRegionAttr, ptr %11, i32 0, i32 2
  %20 = load i8, ptr %8, align 1
  %21 = trunc i8 %20 to i1
  %22 = select i1 %21, i32 1, i32 0
  %23 = trunc i32 %22 to i8
  store i8 %23, ptr %19, align 1
  ret void
}

; Function Attrs: mustprogress nounwind uwtable
define linkonce_odr hidden noundef zeroext i1 @_ZNK16G1HeapRegionAttr8is_youngEv(ptr noundef nonnull align 1 dereferenceable(3) %0) #1 comdat align 2 {
  %2 = alloca ptr, align 8
  store ptr %0, ptr %2, align 8
  %3 = load ptr, ptr %2, align 8
  %4 = call noundef signext i8 @_ZNK16G1HeapRegionAttr4typeEv(ptr noundef nonnull align 1 dereferenceable(3) %3)
  %5 = sext i8 %4 to i32
  %6 = icmp eq i32 %5, 0
  ret i1 %6
}

; Function Attrs: mustprogress nounwind uwtable
define hidden noundef ptr @_ZN20G1ParScanThreadState21allocate_in_next_plabEP16G1HeapRegionAttrmbj(ptr noundef nonnull align 8 dereferenceable(632) %0, ptr noundef %1, i64 noundef %2, i1 noundef zeroext %3, i32 noundef %4) #1 align 2 {
  %6 = alloca ptr, align 8
  %7 = alloca ptr, align 8
  %8 = alloca ptr, align 8
  %9 = alloca i64, align 8
  %10 = alloca i8, align 1
  %11 = alloca i32, align 4
  %12 = alloca i8, align 1
  %13 = alloca ptr, align 8
  %14 = alloca %struct.G1HeapRegionAttr, align 1
  %15 = alloca i24, align 4
  store ptr %0, ptr %7, align 8
  store ptr %1, ptr %8, align 8
  store i64 %2, ptr %9, align 8
  %16 = zext i1 %3 to i8
  store i8 %16, ptr %10, align 1
  store i32 %4, ptr %11, align 4
  %17 = load ptr, ptr %7, align 8
  %18 = load ptr, ptr %8, align 8
  %19 = call noundef zeroext i1 @_ZNK16G1HeapRegionAttr8is_youngEv(ptr noundef nonnull align 1 dereferenceable(3) %18)
  br i1 %19, label %20, label %43

20:                                               ; preds = %5
  store i8 0, ptr %12, align 1
  %21 = getelementptr inbounds %class.G1ParScanThreadState, ptr %17, i32 0, i32 6
  %22 = load ptr, ptr %21, align 8
  call void @_ZN16G1HeapRegionAttrC2Eabb(ptr noundef nonnull align 1 dereferenceable(3) %14, i8 noundef signext 1, i1 noundef zeroext false, i1 noundef zeroext false)
  %23 = load i64, ptr %9, align 8
  %24 = load i32, ptr %11, align 4
  call void @llvm.memcpy.p0.p0.i64(ptr align 4 %15, ptr align 1 %14, i64 3, i1 false)
  %25 = load i24, ptr %15, align 4
  %26 = call noundef ptr @_ZN15G1PLABAllocator8allocateE16G1HeapRegionAttrmPbj(ptr noundef nonnull align 8 dereferenceable(136) %22, i24 %25, i64 noundef %23, ptr noundef %12, i32 noundef %24)
  store ptr %26, ptr %13, align 8
  %27 = load i8, ptr %10, align 1
  %28 = trunc i8 %27 to i1
  br i1 %28, label %29, label %31

29:                                               ; preds = %20
  %30 = getelementptr inbounds %class.G1ParScanThreadState, ptr %17, i32 0, i32 8
  store i32 0, ptr %30, align 8
  br label %31

31:                                               ; preds = %29, %20
  %32 = load ptr, ptr %13, align 8
  %33 = icmp ne ptr %32, null
  br i1 %33, label %34, label %36

34:                                               ; preds = %31
  %35 = load ptr, ptr %8, align 8
  call void @_ZN16G1HeapRegionAttr7set_oldEv(ptr noundef nonnull align 1 dereferenceable(3) %35)
  br label %41

36:                                               ; preds = %31
  %37 = load i8, ptr %12, align 1
  %38 = trunc i8 %37 to i1
  %39 = getelementptr inbounds %class.G1ParScanThreadState, ptr %17, i32 0, i32 19
  %40 = zext i1 %38 to i8
  store i8 %40, ptr %39, align 8
  br label %41

41:                                               ; preds = %36, %34
  %42 = load ptr, ptr %13, align 8
  store ptr %42, ptr %6, align 8
  br label %48

43:                                               ; preds = %5
  %44 = load i8, ptr %10, align 1
  %45 = trunc i8 %44 to i1
  %46 = getelementptr inbounds %class.G1ParScanThreadState, ptr %17, i32 0, i32 19
  %47 = zext i1 %45 to i8
  store i8 %47, ptr %46, align 8
  store ptr null, ptr %6, align 8
  br label %48

48:                                               ; preds = %43, %41
  %49 = load ptr, ptr %6, align 8
  ret ptr %49
}