; Function Attrs: mustprogress nounwind uwtable
define hidden noundef ptr @_ZN20G1ParScanThreadState21allocate_in_next_plabEP16G1HeapRegionAttrmbj(ptr nocapture noundef nonnull align 8 dereferenceable(632) %0, ptr nocapture noundef %1, i64 noundef %2, i1 noundef zeroext %3, i32 noundef %4) local_unnamed_addr #0 align 2 {
  %6 = alloca i8, align 1
  %7 = getelementptr inbounds i8, ptr %1, i64 1
  %8 = load i8, ptr %7, align 1
  %9 = icmp eq i8 %8, 0
  br i1 %9, label %_ZNK15G1PLABAllocator12alloc_bufferE16G1HeapRegionAttrj.exit.i.i, label %32

_ZNK15G1PLABAllocator12alloc_bufferE16G1HeapRegionAttrj.exit.i.i: ; preds = %5
  store i8 0, ptr %6, align 1
  %10 = getelementptr inbounds i8, ptr %0, i64 104
  %11 = load ptr, ptr %10, align 8
  %12 = getelementptr inbounds i8, ptr %11, i64 72
  %13 = load ptr, ptr %12, align 8
  %.0.i.i.i.i = load ptr, ptr %13, align 8
  %14 = getelementptr inbounds i8, ptr %.0.i.i.i.i, i64 48
  %15 = load ptr, ptr %14, align 8
  %16 = getelementptr inbounds i8, ptr %.0.i.i.i.i, i64 56
  %17 = load ptr, ptr %16, align 8
  %18 = ptrtoint ptr %17 to i64
  %19 = ptrtoint ptr %15 to i64
  %20 = sub i64 %18, %19
  %21 = lshr i64 %20, 3
  %.not.i.i.i = icmp ult i64 %21, %2
  br i1 %.not.i.i.i, label %_ZN15G1PLABAllocator13plab_allocateE16G1HeapRegionAttrmj.exit.thread.i, label %_ZN15G1PLABAllocator13plab_allocateE16G1HeapRegionAttrmj.exit.i

_ZN15G1PLABAllocator13plab_allocateE16G1HeapRegionAttrmj.exit.i: ; preds = %_ZNK15G1PLABAllocator12alloc_bufferE16G1HeapRegionAttrj.exit.i.i
  %22 = getelementptr inbounds ptr, ptr %15, i64 %2
  store ptr %22, ptr %14, align 8
  %.not.i = icmp eq ptr %15, null
  br i1 %.not.i, label %_ZN15G1PLABAllocator13plab_allocateE16G1HeapRegionAttrmj.exit.thread.i, label %_ZN15G1PLABAllocator8allocateE16G1HeapRegionAttrmPbj.exit

_ZN15G1PLABAllocator13plab_allocateE16G1HeapRegionAttrmj.exit.thread.i: ; preds = %_ZN15G1PLABAllocator13plab_allocateE16G1HeapRegionAttrmj.exit.i, %_ZNK15G1PLABAllocator12alloc_bufferE16G1HeapRegionAttrj.exit.i.i
  %23 = call noundef ptr @_ZN15G1PLABAllocator27allocate_direct_or_new_plabE16G1HeapRegionAttrmPbj(ptr noundef nonnull align 8 dereferenceable(136) %11, i24 256, i64 noundef %2, ptr noundef nonnull %6, i32 noundef %4) #13
  br label %_ZN15G1PLABAllocator8allocateE16G1HeapRegionAttrmPbj.exit

_ZN15G1PLABAllocator8allocateE16G1HeapRegionAttrmPbj.exit: ; preds = %_ZN15G1PLABAllocator13plab_allocateE16G1HeapRegionAttrmj.exit.i, %_ZN15G1PLABAllocator13plab_allocateE16G1HeapRegionAttrmj.exit.thread.i
  %.0.i = phi ptr [ %23, %_ZN15G1PLABAllocator13plab_allocateE16G1HeapRegionAttrmj.exit.thread.i ], [ %15, %_ZN15G1PLABAllocator13plab_allocateE16G1HeapRegionAttrmj.exit.i ]
  br i1 %3, label %24, label %26

24:                                               ; preds = %_ZN15G1PLABAllocator8allocateE16G1HeapRegionAttrmPbj.exit
  %25 = getelementptr inbounds i8, ptr %0, i64 376
  store i32 0, ptr %25, align 8
  br label %26

26:                                               ; preds = %24, %_ZN15G1PLABAllocator8allocateE16G1HeapRegionAttrmPbj.exit
  %.not = icmp eq ptr %.0.i, null
  br i1 %.not, label %28, label %27

27:                                               ; preds = %26
  store i8 1, ptr %7, align 1
  br label %35

28:                                               ; preds = %26
  %29 = load i8, ptr %6, align 1
  %30 = getelementptr inbounds i8, ptr %0, i64 488
  %31 = and i8 %29, 1
  store i8 %31, ptr %30, align 8
  br label %35

32:                                               ; preds = %5
  %33 = zext i1 %3 to i8
  %34 = getelementptr inbounds i8, ptr %0, i64 488
  store i8 %33, ptr %34, align 8
  br label %35

35:                                               ; preds = %27, %28, %32
  %.0 = phi ptr [ null, %32 ], [ null, %28 ], [ %.0.i, %27 ]
  ret ptr %.0
}